; Function Attrs: mustprogress nounwind memory(read, argmem: readwrite, inaccessiblemem: write) uwtable
define internal fastcc void @_ZN8facebook5velox9functions12_GLOBAL__N_116SequenceFunctionIilE15writeToElementsEPibbiPNS0_13DecodedVectorES7_S7_i(ptr nocapture noundef writeonly %elements, i1 noundef zeroext %isDate, i1 noundef zeroext %isYearMonth, i32 noundef %sequenceCount, ptr nocapture noundef readonly %startVector, ptr nocapture noundef readonly %stopVector, ptr noundef readonly %stepVector, i32 noundef %row) unnamed_addr #21 align 2 {
entry:
  %data_.i = getelementptr inbounds i8, ptr %startVector, i64 16
  %0 = load ptr, ptr %data_.i, align 8
  %isIdentityMapping_.i.i = getelementptr inbounds i8, ptr %startVector, i64 58
  %1 = load i8, ptr %isIdentityMapping_.i.i, align 2
  %2 = and i8 %1, 1
  %tobool.not.i.i = icmp eq i8 %2, 0
  br i1 %tobool.not.i.i, label %if.end.i.i, label %_ZNK8facebook5velox13DecodedVector7valueAtIiEET_i.exit

if.end.i.i:                                       ; preds = %entry
  %isConstantMapping_.i.i = getelementptr inbounds i8, ptr %startVector, i64 59
  %3 = load i8, ptr %isConstantMapping_.i.i, align 1
  %4 = and i8 %3, 1
  %tobool2.not.i.i = icmp eq i8 %4, 0
  br i1 %tobool2.not.i.i, label %if.end4.i.i, label %if.then3.i.i

if.then3.i.i:                                     ; preds = %if.end.i.i
  %constantIndex_.i.i = getelementptr inbounds i8, ptr %startVector, i64 64
  %5 = load i32, ptr %constantIndex_.i.i, align 8
  br label %_ZNK8facebook5velox13DecodedVector7valueAtIiEET_i.exit

if.end4.i.i:                                      ; preds = %if.end.i.i
  %indices_.i.i = getelementptr inbounds i8, ptr %startVector, i64 8
  %6 = load ptr, ptr %indices_.i.i, align 8
  %idxprom.i.i = sext i32 %row to i64
  %arrayidx.i.i = getelementptr inbounds i32, ptr %6, i64 %idxprom.i.i
  %7 = load i32, ptr %arrayidx.i.i, align 4
  br label %_ZNK8facebook5velox13DecodedVector7valueAtIiEET_i.exit

_ZNK8facebook5velox13DecodedVector7valueAtIiEET_i.exit: ; preds = %entry, %if.then3.i.i, %if.end4.i.i
  %retval.0.i.i = phi i32 [ %5, %if.then3.i.i ], [ %7, %if.end4.i.i ], [ %row, %entry ]
  %idxprom.i = sext i32 %retval.0.i.i to i64
  %arrayidx.i = getelementptr inbounds i32, ptr %0, i64 %idxprom.i
  %8 = load i32, ptr %arrayidx.i, align 4
  %data_.i7 = getelementptr inbounds i8, ptr %stopVector, i64 16
  %9 = load ptr, ptr %data_.i7, align 8
  %isIdentityMapping_.i.i8 = getelementptr inbounds i8, ptr %stopVector, i64 58
  %10 = load i8, ptr %isIdentityMapping_.i.i8, align 2
  %11 = and i8 %10, 1
  %tobool.not.i.i9 = icmp eq i8 %11, 0
  br i1 %tobool.not.i.i9, label %if.end.i.i13, label %_ZNK8facebook5velox13DecodedVector7valueAtIiEET_i.exit22

if.end.i.i13:                                     ; preds = %_ZNK8facebook5velox13DecodedVector7valueAtIiEET_i.exit
  %isConstantMapping_.i.i14 = getelementptr inbounds i8, ptr %stopVector, i64 59
  %12 = load i8, ptr %isConstantMapping_.i.i14, align 1
  %13 = and i8 %12, 1
  %tobool2.not.i.i15 = icmp eq i8 %13, 0
  br i1 %tobool2.not.i.i15, label %if.end4.i.i18, label %if.then3.i.i16

if.then3.i.i16:                                   ; preds = %if.end.i.i13
  %constantIndex_.i.i17 = getelementptr inbounds i8, ptr %stopVector, i64 64
  %14 = load i32, ptr %constantIndex_.i.i17, align 8
  br label %_ZNK8facebook5velox13DecodedVector7valueAtIiEET_i.exit22

if.end4.i.i18:                                    ; preds = %if.end.i.i13
  %indices_.i.i19 = getelementptr inbounds i8, ptr %stopVector, i64 8
  %15 = load ptr, ptr %indices_.i.i19, align 8
  %idxprom.i.i20 = sext i32 %row to i64
  %arrayidx.i.i21 = getelementptr inbounds i32, ptr %15, i64 %idxprom.i.i20
  %16 = load i32, ptr %arrayidx.i.i21, align 4
  br label %_ZNK8facebook5velox13DecodedVector7valueAtIiEET_i.exit22

_ZNK8facebook5velox13DecodedVector7valueAtIiEET_i.exit22: ; preds = %_ZNK8facebook5velox13DecodedVector7valueAtIiEET_i.exit, %if.then3.i.i16, %if.end4.i.i18
  %retval.0.i.i10 = phi i32 [ %14, %if.then3.i.i16 ], [ %16, %if.end4.i.i18 ], [ %row, %_ZNK8facebook5velox13DecodedVector7valueAtIiEET_i.exit ]
  %tobool.not.i = icmp eq ptr %stepVector, null
  br i1 %tobool.not.i, label %if.then.i, label %if.end.i

if.then.i:                                        ; preds = %_ZNK8facebook5velox13DecodedVector7valueAtIiEET_i.exit22
  %idxprom.i11 = sext i32 %retval.0.i.i10 to i64
  %arrayidx.i12 = getelementptr inbounds i32, ptr %9, i64 %idxprom.i11
  %17 = load i32, ptr %arrayidx.i12, align 4
  %cmp.not.i = icmp slt i32 %17, %8
  %conv.i26 = select i1 %cmp.not.i, i64 -1, i64 1
  br label %_ZN8facebook5velox9functions12_GLOBAL__N_116SequenceFunctionIilE7getStepEllPNS0_13DecodedVectorEibb.exit

if.end.i:                                         ; preds = %_ZNK8facebook5velox13DecodedVector7valueAtIiEET_i.exit22
  %data_.i.i = getelementptr inbounds i8, ptr %stepVector, i64 16
  %18 = load ptr, ptr %data_.i.i, align 8
  %isIdentityMapping_.i.i.i = getelementptr inbounds i8, ptr %stepVector, i64 58
  %19 = load i8, ptr %isIdentityMapping_.i.i.i, align 2
  %20 = and i8 %19, 1
  %tobool.not.i.i.i = icmp eq i8 %20, 0
  br i1 %tobool.not.i.i.i, label %if.end.i.i.i, label %_ZNK8facebook5velox13DecodedVector7valueAtIlEET_i.exit.i

if.end.i.i.i:                                     ; preds = %if.end.i
  %isConstantMapping_.i.i.i = getelementptr inbounds i8, ptr %stepVector, i64 59
  %21 = load i8, ptr %isConstantMapping_.i.i.i, align 1
  %22 = and i8 %21, 1
  %tobool2.not.i.i.i = icmp eq i8 %22, 0
  br i1 %tobool2.not.i.i.i, label %if.end4.i.i.i, label %if.then3.i.i.i

if.then3.i.i.i:                                   ; preds = %if.end.i.i.i
  %constantIndex_.i.i.i = getelementptr inbounds i8, ptr %stepVector, i64 64
  %23 = load i32, ptr %constantIndex_.i.i.i, align 8
  br label %_ZNK8facebook5velox13DecodedVector7valueAtIlEET_i.exit.i

if.end4.i.i.i:                                    ; preds = %if.end.i.i.i
  %indices_.i.i.i = getelementptr inbounds i8, ptr %stepVector, i64 8
  %24 = load ptr, ptr %indices_.i.i.i, align 8
  %idxprom.i.i.i = sext i32 %row to i64
  %arrayidx.i.i.i = getelementptr inbounds i32, ptr %24, i64 %idxprom.i.i.i
  %25 = load i32, ptr %arrayidx.i.i.i, align 4
  br label %_ZNK8facebook5velox13DecodedVector7valueAtIlEET_i.exit.i

_ZNK8facebook5velox13DecodedVector7valueAtIlEET_i.exit.i: ; preds = %if.end4.i.i.i, %if.then3.i.i.i, %if.end.i
  %retval.0.i.i.i = phi i32 [ %23, %if.then3.i.i.i ], [ %25, %if.end4.i.i.i ], [ %row, %if.end.i ]
  %idxprom.i.i24 = sext i32 %retval.0.i.i.i to i64
  %arrayidx.i.i25 = getelementptr inbounds i64, ptr %18, i64 %idxprom.i.i24
  %26 = load i64, ptr %arrayidx.i.i25, align 8
  %isDate.not.i = xor i1 %isDate, true
  %brmerge.i = or i1 %isDate.not.i, %isYearMonth
  br i1 %brmerge.i, label %_ZN8facebook5velox9functions12_GLOBAL__N_116SequenceFunctionIilE7getStepEllPNS0_13DecodedVectorEibb.exit, label %if.end5.i

if.end5.i:                                        ; preds = %_ZNK8facebook5velox13DecodedVector7valueAtIlEET_i.exit.i
  %rem.i = srem i64 %26, 86400000
  %div.i = sdiv i64 %26, 86400000
  %cmp6.not.i = icmp eq i64 %rem.i, 0
  br i1 %cmp6.not.i, label %_ZN8facebook5velox9functions12_GLOBAL__N_116SequenceFunctionIilE7getStepEllPNS0_13DecodedVectorEibb.exit, label %if.then8.i

if.then8.i:                                       ; preds = %if.end5.i
  tail call void @llvm.trap()
  unreachable

_ZN8facebook5velox9functions12_GLOBAL__N_116SequenceFunctionIilE7getStepEllPNS0_13DecodedVectorEibb.exit: ; preds = %if.end5.i, %if.then.i, %_ZNK8facebook5velox13DecodedVector7valueAtIlEET_i.exit.i
  %retval.0.i = phi i64 [ %conv.i26, %if.then.i ], [ %26, %_ZNK8facebook5velox13DecodedVector7valueAtIlEET_i.exit.i ], [ %div.i, %if.end5.i ]
  %cmp28 = icmp sgt i32 %sequenceCount, 0
  br i1 %cmp28, label %for.body.lr.ph, label %for.end

for.body.lr.ph:                                   ; preds = %_ZN8facebook5velox9functions12_GLOBAL__N_116SequenceFunctionIilE7getStepEllPNS0_13DecodedVectorEibb.exit
  %conv.i27 = trunc i64 %retval.0.i to i32
  %wide.trip.count = zext nneg i32 %sequenceCount to i64
  br label %for.body

for.body:                                         ; preds = %for.body.lr.ph, %for.body
  %indvars.iv = phi i64 [ 0, %for.body.lr.ph ], [ %indvars.iv.next, %for.body ]
  %27 = trunc i64 %indvars.iv to i32
  %mul.i = mul i32 %27, %conv.i27
  %add.i = add i32 %mul.i, %8
  %arrayidx = getelementptr inbounds i32, ptr %elements, i64 %indvars.iv
  store i32 %add.i, ptr %arrayidx, align 4
  %indvars.iv.next = add nuw nsw i64 %indvars.iv, 1
  %exitcond.not = icmp eq i64 %indvars.iv.next, %wide.trip.count
  br i1 %exitcond.not, label %for.end, label %for.body, !llvm.loop !163

for.end:                                          ; preds = %for.body, %_ZN8facebook5velox9functions12_GLOBAL__N_116SequenceFunctionIilE7getStepEllPNS0_13DecodedVectorEibb.exit
  ret void
}